; Function Attrs: nounwind sspstrong uwtable
define internal range(i64 0, 21) i64 @ossl_ssl_session_reused(i64 noundef %0) #0 {
  %2 = tail call ptr @rb_check_typeddata(i64 noundef %0, ptr noundef nonnull @ossl_ssl_type) #9
  %.not = icmp eq ptr %2, null
  br i1 %.not, label %3, label %5

3:                                                ; preds = %1
  %4 = load i64, ptr @rb_eRuntimeError, align 8, !tbaa !10
  tail call void (i64, ptr, ...) @ossl_raise(i64 noundef %4, ptr noundef nonnull @.str.267) #10
  unreachable

5:                                                ; preds = %1
  %6 = tail call i32 @SSL_session_reused(ptr noundef nonnull %2) #9
  %.not2 = icmp eq i32 %6, 0
  %7 = select i1 %.not2, i64 0, i64 20
  ret i64 %7
}